target datalayout = "e-m:e-p270:32:32-p271:32:32-p272:64:64-i64:64-i128:128-f80:128-n8:16:32:64-S128"
target triple = "x86_64-pc-linux-gnu"

@pending_job_id = internal global i32 0, align 4
@.str.22 = private unnamed_addr constant [14 x i8] c"Got signal %d\00", align 1

; Function Attrs: nounwind uwtable
define internal ptr @_safe_signal_while_allocating(ptr noundef %0) #0 {
  %2 = alloca ptr, align 8
  %3 = alloca i32, align 4
  store ptr %0, ptr %2, align 8
  call void @llvm.lifetime.start.p0(i64 4, ptr %3) #7
  %4 = load ptr, ptr %2, align 8
  %5 = load i32, ptr %4, align 4
  store i32 %5, ptr %3, align 4
  br label %6

6:                                                ; preds = %1
  br label %7

7:                                                ; preds = %6
  %8 = call i32 @get_log_level()
  %9 = icmp sge i32 %8, 5
  br i1 %9, label %10, label %12

10:                                               ; preds = %7
  %11 = load i32, ptr %3, align 4
  call void (i32, ptr, ...) @log_var(i32 noundef 5, ptr noundef @.str.22, i32 noundef %11)
  br label %12

12:                                               ; preds = %10, %7
  br label %13

13:                                               ; preds = %12
  br label %14

14:                                               ; preds = %13
  br label %15

15:                                               ; preds = %14
  br label %16

16:                                               ; preds = %15
  call void @slurm_xfree(ptr noundef %2)
  %17 = load i32, ptr @pending_job_id, align 4
  %18 = icmp ne i32 %17, 0
  br i1 %18, label %19, label %24

19:                                               ; preds = %16
  %20 = load i32, ptr @pending_job_id, align 4
  %21 = load i32, ptr %3, align 4
  %22 = add nsw i32 128, %21
  %23 = call i32 @slurm_complete_job(i32 noundef %20, i32 noundef %22)
  br label %24

24:                                               ; preds = %19, %16
  call void @llvm.lifetime.end.p0(i64 4, ptr %3) #7
  ret ptr null
}