; Function Attrs: nounwind uwtable
define internal noalias noundef ptr @_safe_signal_while_allocating(ptr noundef %0) #0 {
  %2 = alloca ptr, align 8
  store ptr %0, ptr %2, align 8
  %3 = load i32, ptr %0, align 4
  %4 = tail call i32 @get_log_level() #9
  %5 = icmp sgt i32 %4, 4
  br i1 %5, label %6, label %7

6:                                                ; preds = %1
  tail call void (i32, ptr, ...) @log_var(i32 noundef 5, ptr noundef nonnull @.str.22, i32 noundef %3) #9
  br label %7

7:                                                ; preds = %6, %1
  call void @slurm_xfree(ptr noundef nonnull %2) #9
  %8 = load i32, ptr @pending_job_id, align 4
  %.not = icmp eq i32 %8, 0
  br i1 %.not, label %12, label %9

9:                                                ; preds = %7
  %10 = add nsw i32 %3, 128
  %11 = call i32 @slurm_complete_job(i32 noundef %8, i32 noundef %10) #9
  br label %12

12:                                               ; preds = %9, %7
  ret ptr null
}